target datalayout = "e-m:e-p270:32:32-p271:32:32-p272:64:64-i64:64-i128:128-f80:128-n8:16:32:64-S128"
target triple = "x86_64-pc-linux-gnu"

%struct.FunctionCallInfoBaseData = type { ptr, ptr, ptr, i32, i8, i16, [0 x %struct.NullableDatum] }
%struct.NullableDatum = type { i64, i8 }
%struct.Point = type { double, double }
%struct.spgPickSplitIn = type { i32, ptr, i32 }
%struct.SortedPoint = type { ptr, i32 }
%struct.spgPickSplitOut = type { i8, i64, i32, ptr, ptr, ptr }
%union.anon.3 = type { double }

; Function Attrs: inlinehint nounwind uwtable
define internal i64 @PointerGetDatum(ptr noundef %0) #2 {
  %2 = alloca ptr, align 8
  store ptr %0, ptr %2, align 8
  %3 = load ptr, ptr %2, align 8
  %4 = ptrtoint ptr %3 to i64
  ret i64 %4
}

; Function Attrs: inlinehint nounwind uwtable
define internal i64 @Int64GetDatum(i64 noundef %0) #2 {
  %2 = alloca i64, align 8
  store i64 %0, ptr %2, align 8
  %3 = load i64, ptr %2, align 8
  ret i64 %3
}

; Function Attrs: inlinehint nounwind uwtable
define internal i64 @PointPGetDatum(ptr noundef %0) #2 {
  %2 = alloca ptr, align 8
  store ptr %0, ptr %2, align 8
  %3 = load ptr, ptr %2, align 8
  %4 = call i64 @PointerGetDatum(ptr noundef %3)
  ret i64 %4
}

; Function Attrs: inlinehint nounwind uwtable
define internal i64 @Float8GetDatum(double noundef %0) #2 {
  %2 = alloca double, align 8
  %3 = alloca %union.anon.3, align 8
  store double %0, ptr %2, align 8
  call void @llvm.lifetime.start.p0(i64 8, ptr %3) #6
  %4 = load double, ptr %2, align 8
  store double %4, ptr %3, align 8
  %5 = load i64, ptr %3, align 8
  %6 = call i64 @Int64GetDatum(i64 noundef %5)
  call void @llvm.lifetime.end.p0(i64 8, ptr %3) #6
  ret i64 %6
}

; Function Attrs: inlinehint nounwind uwtable
define internal ptr @DatumGetPointP(i64 noundef %0) #2 {
  %2 = alloca i64, align 8
  store i64 %0, ptr %2, align 8
  %3 = load i64, ptr %2, align 8
  %4 = call ptr @DatumGetPointer(i64 noundef %3)
  ret ptr %4
}

; Function Attrs: inlinehint nounwind uwtable
define internal ptr @DatumGetPointer(i64 noundef %0) #2 {
  %2 = alloca i64, align 8
  store i64 %0, ptr %2, align 8
  %3 = load i64, ptr %2, align 8
  %4 = inttoptr i64 %3 to ptr
  ret ptr %4
}

; Function Attrs: nounwind uwtable
define dso_local i64 @spg_kd_picksplit(ptr noundef %0) #0 {
  %2 = alloca ptr, align 8
  %3 = alloca ptr, align 8
  %4 = alloca ptr, align 8
  %5 = alloca i32, align 4
  %6 = alloca i32, align 4
  %7 = alloca ptr, align 8
  %8 = alloca double, align 8
  %9 = alloca ptr, align 8
  %10 = alloca i32, align 4
  store ptr %0, ptr %2, align 8
  call void @llvm.lifetime.start.p0(i64 8, ptr %3) #6
  %11 = load ptr, ptr %2, align 8
  %12 = getelementptr inbounds nuw %struct.FunctionCallInfoBaseData, ptr %11, i32 0, i32 6
  %13 = getelementptr inbounds [0 x %struct.NullableDatum], ptr %12, i64 0, i64 0
  %14 = getelementptr inbounds nuw %struct.NullableDatum, ptr %13, i32 0, i32 0
  %15 = load i64, ptr %14, align 8
  %16 = call ptr @DatumGetPointer(i64 noundef %15)
  store ptr %16, ptr %3, align 8
  call void @llvm.lifetime.start.p0(i64 8, ptr %4) #6
  %17 = load ptr, ptr %2, align 8
  %18 = getelementptr inbounds nuw %struct.FunctionCallInfoBaseData, ptr %17, i32 0, i32 6
  %19 = getelementptr inbounds [0 x %struct.NullableDatum], ptr %18, i64 0, i64 1
  %20 = getelementptr inbounds nuw %struct.NullableDatum, ptr %19, i32 0, i32 0
  %21 = load i64, ptr %20, align 8
  %22 = call ptr @DatumGetPointer(i64 noundef %21)
  store ptr %22, ptr %4, align 8
  call void @llvm.lifetime.start.p0(i64 4, ptr %5) #6
  call void @llvm.lifetime.start.p0(i64 4, ptr %6) #6
  call void @llvm.lifetime.start.p0(i64 8, ptr %7) #6
  call void @llvm.lifetime.start.p0(i64 8, ptr %8) #6
  %23 = load ptr, ptr %3, align 8
  %24 = getelementptr inbounds nuw %struct.spgPickSplitIn, ptr %23, i32 0, i32 0
  %25 = load i32, ptr %24, align 8
  %26 = sext i32 %25 to i64
  %27 = mul i64 16, %26
  %28 = call ptr @palloc(i64 noundef %27)
  store ptr %28, ptr %7, align 8
  store i32 0, ptr %5, align 4
  br label %29

29:                                               ; preds = %55, %1
  %30 = load i32, ptr %5, align 4
  %31 = load ptr, ptr %3, align 8
  %32 = getelementptr inbounds nuw %struct.spgPickSplitIn, ptr %31, i32 0, i32 0
  %33 = load i32, ptr %32, align 8
  %34 = icmp slt i32 %30, %33
  br i1 %34, label %35, label %58

35:                                               ; preds = %29
  %36 = load ptr, ptr %3, align 8
  %37 = getelementptr inbounds nuw %struct.spgPickSplitIn, ptr %36, i32 0, i32 1
  %38 = load ptr, ptr %37, align 8
  %39 = load i32, ptr %5, align 4
  %40 = sext i32 %39 to i64
  %41 = getelementptr inbounds i64, ptr %38, i64 %40
  %42 = load i64, ptr %41, align 8
  %43 = call ptr @DatumGetPointP(i64 noundef %42)
  %44 = load ptr, ptr %7, align 8
  %45 = load i32, ptr %5, align 4
  %46 = sext i32 %45 to i64
  %47 = getelementptr inbounds %struct.SortedPoint, ptr %44, i64 %46
  %48 = getelementptr inbounds nuw %struct.SortedPoint, ptr %47, i32 0, i32 0
  store ptr %43, ptr %48, align 8
  %49 = load i32, ptr %5, align 4
  %50 = load ptr, ptr %7, align 8
  %51 = load i32, ptr %5, align 4
  %52 = sext i32 %51 to i64
  %53 = getelementptr inbounds %struct.SortedPoint, ptr %50, i64 %52
  %54 = getelementptr inbounds nuw %struct.SortedPoint, ptr %53, i32 0, i32 1
  store i32 %49, ptr %54, align 8
  br label %55

55:                                               ; preds = %35
  %56 = load i32, ptr %5, align 4
  %57 = add i32 %56, 1
  store i32 %57, ptr %5, align 4
  br label %29, !llvm.loop !6

58:                                               ; preds = %29
  %59 = load ptr, ptr %7, align 8
  %60 = load ptr, ptr %3, align 8
  %61 = getelementptr inbounds nuw %struct.spgPickSplitIn, ptr %60, i32 0, i32 0
  %62 = load i32, ptr %61, align 8
  %63 = sext i32 %62 to i64
  %64 = load ptr, ptr %3, align 8
  %65 = getelementptr inbounds nuw %struct.spgPickSplitIn, ptr %64, i32 0, i32 2
  %66 = load i32, ptr %65, align 8
  %67 = srem i32 %66, 2
  %68 = icmp ne i32 %67, 0
  %69 = select i1 %68, ptr @x_cmp, ptr @y_cmp
  call void @pg_qsort(ptr noundef %59, i64 noundef %63, i64 noundef 16, ptr noundef %69)
  %70 = load ptr, ptr %3, align 8
  %71 = getelementptr inbounds nuw %struct.spgPickSplitIn, ptr %70, i32 0, i32 0
  %72 = load i32, ptr %71, align 8
  %73 = ashr i32 %72, 1
  store i32 %73, ptr %6, align 4
  %74 = load ptr, ptr %3, align 8
  %75 = getelementptr inbounds nuw %struct.spgPickSplitIn, ptr %74, i32 0, i32 2
  %76 = load i32, ptr %75, align 8
  %77 = srem i32 %76, 2
  %78 = icmp ne i32 %77, 0
  br i1 %78, label %79, label %88

79:                                               ; preds = %58
  %80 = load ptr, ptr %7, align 8
  %81 = load i32, ptr %6, align 4
  %82 = sext i32 %81 to i64
  %83 = getelementptr inbounds %struct.SortedPoint, ptr %80, i64 %82
  %84 = getelementptr inbounds nuw %struct.SortedPoint, ptr %83, i32 0, i32 0
  %85 = load ptr, ptr %84, align 8
  %86 = getelementptr inbounds nuw %struct.Point, ptr %85, i32 0, i32 0
  %87 = load double, ptr %86, align 8
  br label %97

88:                                               ; preds = %58
  %89 = load ptr, ptr %7, align 8
  %90 = load i32, ptr %6, align 4
  %91 = sext i32 %90 to i64
  %92 = getelementptr inbounds %struct.SortedPoint, ptr %89, i64 %91
  %93 = getelementptr inbounds nuw %struct.SortedPoint, ptr %92, i32 0, i32 0
  %94 = load ptr, ptr %93, align 8
  %95 = getelementptr inbounds nuw %struct.Point, ptr %94, i32 0, i32 1
  %96 = load double, ptr %95, align 8
  br label %97

97:                                               ; preds = %88, %79
  %98 = phi double [ %87, %79 ], [ %96, %88 ]
  store double %98, ptr %8, align 8
  %99 = load ptr, ptr %4, align 8
  %100 = getelementptr inbounds nuw %struct.spgPickSplitOut, ptr %99, i32 0, i32 0
  store i8 1, ptr %100, align 8
  %101 = load double, ptr %8, align 8
  %102 = call i64 @Float8GetDatum(double noundef %101)
  %103 = load ptr, ptr %4, align 8
  %104 = getelementptr inbounds nuw %struct.spgPickSplitOut, ptr %103, i32 0, i32 1
  store i64 %102, ptr %104, align 8
  %105 = load ptr, ptr %4, align 8
  %106 = getelementptr inbounds nuw %struct.spgPickSplitOut, ptr %105, i32 0, i32 2
  store i32 2, ptr %106, align 8
  %107 = load ptr, ptr %4, align 8
  %108 = getelementptr inbounds nuw %struct.spgPickSplitOut, ptr %107, i32 0, i32 3
  store ptr null, ptr %108, align 8
  %109 = load ptr, ptr %3, align 8
  %110 = getelementptr inbounds nuw %struct.spgPickSplitIn, ptr %109, i32 0, i32 0
  %111 = load i32, ptr %110, align 8
  %112 = sext i32 %111 to i64
  %113 = mul i64 4, %112
  %114 = call ptr @palloc(i64 noundef %113)
  %115 = load ptr, ptr %4, align 8
  %116 = getelementptr inbounds nuw %struct.spgPickSplitOut, ptr %115, i32 0, i32 4
  store ptr %114, ptr %116, align 8
  %117 = load ptr, ptr %3, align 8
  %118 = getelementptr inbounds nuw %struct.spgPickSplitIn, ptr %117, i32 0, i32 0
  %119 = load i32, ptr %118, align 8
  %120 = sext i32 %119 to i64
  %121 = mul i64 8, %120
  %122 = call ptr @palloc(i64 noundef %121)
  %123 = load ptr, ptr %4, align 8
  %124 = getelementptr inbounds nuw %struct.spgPickSplitOut, ptr %123, i32 0, i32 5
  store ptr %122, ptr %124, align 8
  store i32 0, ptr %5, align 4
  br label %125

125:                                              ; preds = %162, %97
  %126 = load i32, ptr %5, align 4
  %127 = load ptr, ptr %3, align 8
  %128 = getelementptr inbounds nuw %struct.spgPickSplitIn, ptr %127, i32 0, i32 0
  %129 = load i32, ptr %128, align 8
  %130 = icmp slt i32 %126, %129
  br i1 %130, label %131, label %165

131:                                              ; preds = %125
  call void @llvm.lifetime.start.p0(i64 8, ptr %9) #6
  %132 = load ptr, ptr %7, align 8
  %133 = load i32, ptr %5, align 4
  %134 = sext i32 %133 to i64
  %135 = getelementptr inbounds %struct.SortedPoint, ptr %132, i64 %134
  %136 = getelementptr inbounds nuw %struct.SortedPoint, ptr %135, i32 0, i32 0
  %137 = load ptr, ptr %136, align 8
  store ptr %137, ptr %9, align 8
  call void @llvm.lifetime.start.p0(i64 4, ptr %10) #6
  %138 = load ptr, ptr %7, align 8
  %139 = load i32, ptr %5, align 4
  %140 = sext i32 %139 to i64
  %141 = getelementptr inbounds %struct.SortedPoint, ptr %138, i64 %140
  %142 = getelementptr inbounds nuw %struct.SortedPoint, ptr %141, i32 0, i32 1
  %143 = load i32, ptr %142, align 8
  store i32 %143, ptr %10, align 4
  %144 = load i32, ptr %5, align 4
  %145 = load i32, ptr %6, align 4
  %146 = icmp slt i32 %144, %145
  %147 = select i1 %146, i32 0, i32 1
  %148 = load ptr, ptr %4, align 8
  %149 = getelementptr inbounds nuw %struct.spgPickSplitOut, ptr %148, i32 0, i32 4
  %150 = load ptr, ptr %149, align 8
  %151 = load i32, ptr %10, align 4
  %152 = sext i32 %151 to i64
  %153 = getelementptr inbounds i32, ptr %150, i64 %152
  store i32 %147, ptr %153, align 4
  %154 = load ptr, ptr %9, align 8
  %155 = call i64 @PointPGetDatum(ptr noundef %154)
  %156 = load ptr, ptr %4, align 8
  %157 = getelementptr inbounds nuw %struct.spgPickSplitOut, ptr %156, i32 0, i32 5
  %158 = load ptr, ptr %157, align 8
  %159 = load i32, ptr %10, align 4
  %160 = sext i32 %159 to i64
  %161 = getelementptr inbounds i64, ptr %158, i64 %160
  store i64 %155, ptr %161, align 8
  call void @llvm.lifetime.end.p0(i64 4, ptr %10) #6
  call void @llvm.lifetime.end.p0(i64 8, ptr %9) #6
  br label %162

162:                                              ; preds = %131
  %163 = load i32, ptr %5, align 4
  %164 = add i32 %163, 1
  store i32 %164, ptr %5, align 4
  br label %125, !llvm.loop !8

165:                                              ; preds = %125
  call void @llvm.lifetime.end.p0(i64 8, ptr %8) #6
  call void @llvm.lifetime.end.p0(i64 8, ptr %7) #6
  call void @llvm.lifetime.end.p0(i64 4, ptr %6) #6
  call void @llvm.lifetime.end.p0(i64 4, ptr %5) #6
  call void @llvm.lifetime.end.p0(i64 8, ptr %4) #6
  call void @llvm.lifetime.end.p0(i64 8, ptr %3) #6
  ret i64 0
}