; Function Attrs: nounwind uwtable
define dso_local noundef i64 @spg_kd_picksplit(ptr noundef readonly captures(none) %0) local_unnamed_addr #2 {
  %2 = getelementptr inbounds nuw i8, ptr %0, i64 32
  %3 = load i64, ptr %2, align 8
  %4 = inttoptr i64 %3 to ptr
  %5 = getelementptr inbounds nuw i8, ptr %0, i64 48
  %6 = load i64, ptr %5, align 8
  %7 = inttoptr i64 %6 to ptr
  %8 = load i32, ptr %4, align 8
  %9 = sext i32 %8 to i64
  %10 = shl nsw i64 %9, 4
  %11 = tail call ptr @palloc(i64 noundef %10) #9
  %12 = load i32, ptr %4, align 8
  %13 = icmp sgt i32 %12, 0
  br i1 %13, label %.lr.ph, label %.._crit_edge_crit_edge

.._crit_edge_crit_edge:                           ; preds = %1
  %.pre = sext i32 %12 to i64
  br label %._crit_edge

.lr.ph:                                           ; preds = %1
  %14 = getelementptr inbounds nuw i8, ptr %4, i64 8
  br label %15

15:                                               ; preds = %.lr.ph, %15
  %indvars.iv = phi i64 [ 0, %.lr.ph ], [ %indvars.iv.next, %15 ]
  %16 = load ptr, ptr %14, align 8
  %17 = getelementptr inbounds nuw i64, ptr %16, i64 %indvars.iv
  %18 = load i64, ptr %17, align 8
  %19 = inttoptr i64 %18 to ptr
  %20 = getelementptr inbounds nuw %struct.SortedPoint, ptr %11, i64 %indvars.iv
  store ptr %19, ptr %20, align 8
  %21 = getelementptr inbounds nuw i8, ptr %20, i64 8
  %22 = trunc nuw nsw i64 %indvars.iv to i32
  store i32 %22, ptr %21, align 8
  %indvars.iv.next = add nuw nsw i64 %indvars.iv, 1
  %23 = load i32, ptr %4, align 8
  %24 = sext i32 %23 to i64
  %25 = icmp slt i64 %indvars.iv.next, %24
  br i1 %25, label %15, label %._crit_edge, !llvm.loop !6

._crit_edge:                                      ; preds = %15, %.._crit_edge_crit_edge
  %.pre-phi = phi i64 [ %.pre, %.._crit_edge_crit_edge ], [ %24, %15 ]
  %26 = getelementptr inbounds nuw i8, ptr %4, i64 16
  %27 = load i32, ptr %26, align 8
  %28 = and i32 %27, 1
  %.not = icmp eq i32 %28, 0
  %29 = select i1 %.not, ptr @y_cmp, ptr @x_cmp
  tail call void @pg_qsort(ptr noundef %11, i64 noundef %.pre-phi, i64 noundef 16, ptr noundef nonnull %29) #9
  %30 = load i32, ptr %4, align 8
  %31 = ashr i32 %30, 1
  %32 = load i32, ptr %26, align 8
  %33 = sext i32 %31 to i64
  %34 = getelementptr inbounds %struct.SortedPoint, ptr %11, i64 %33
  %35 = load ptr, ptr %34, align 8
  %36 = shl i32 %32, 3
  %37 = and i32 %36, 8
  %38 = xor i32 %37, 8
  %.in.idx = zext nneg i32 %38 to i64
  %.in = getelementptr inbounds nuw i8, ptr %35, i64 %.in.idx
  %39 = load i64, ptr %.in, align 8
  store i8 1, ptr %7, align 8
  %40 = getelementptr inbounds nuw i8, ptr %7, i64 8
  store i64 %39, ptr %40, align 8
  %41 = getelementptr inbounds nuw i8, ptr %7, i64 16
  store i32 2, ptr %41, align 8
  %42 = getelementptr inbounds nuw i8, ptr %7, i64 24
  store ptr null, ptr %42, align 8
  %43 = load i32, ptr %4, align 8
  %44 = sext i32 %43 to i64
  %45 = shl nsw i64 %44, 2
  %46 = tail call ptr @palloc(i64 noundef %45) #9
  %47 = getelementptr inbounds nuw i8, ptr %7, i64 32
  store ptr %46, ptr %47, align 8
  %48 = load i32, ptr %4, align 8
  %49 = sext i32 %48 to i64
  %50 = shl nsw i64 %49, 3
  %51 = tail call ptr @palloc(i64 noundef %50) #9
  %52 = getelementptr inbounds nuw i8, ptr %7, i64 40
  store ptr %51, ptr %52, align 8
  %53 = load i32, ptr %4, align 8
  %54 = icmp sgt i32 %53, 0
  br i1 %54, label %.lr.ph49.preheader, label %._crit_edge50

.lr.ph49.preheader:                               ; preds = %._crit_edge
  %55 = sext i32 %31 to i64
  br label %.lr.ph49

.lr.ph49:                                         ; preds = %.lr.ph49.preheader, %.lr.ph49
  %indvars.iv53 = phi i64 [ 0, %.lr.ph49.preheader ], [ %indvars.iv.next54, %.lr.ph49 ]
  %56 = getelementptr inbounds nuw %struct.SortedPoint, ptr %11, i64 %indvars.iv53
  %57 = load ptr, ptr %56, align 8
  %58 = getelementptr inbounds nuw i8, ptr %56, i64 8
  %59 = load i32, ptr %58, align 8
  %60 = icmp sge i64 %indvars.iv53, %55
  %61 = zext i1 %60 to i32
  %62 = load ptr, ptr %47, align 8
  %63 = sext i32 %59 to i64
  %64 = getelementptr inbounds i32, ptr %62, i64 %63
  store i32 %61, ptr %64, align 4
  %65 = ptrtoint ptr %57 to i64
  %66 = load ptr, ptr %52, align 8
  %67 = getelementptr inbounds i64, ptr %66, i64 %63
  store i64 %65, ptr %67, align 8
  %indvars.iv.next54 = add nuw nsw i64 %indvars.iv53, 1
  %68 = load i32, ptr %4, align 8
  %69 = sext i32 %68 to i64
  %70 = icmp slt i64 %indvars.iv.next54, %69
  br i1 %70, label %.lr.ph49, label %._crit_edge50, !llvm.loop !8

._crit_edge50:                                    ; preds = %.lr.ph49, %._crit_edge
  ret i64 0
}